; Function Attrs: mustprogress uwtable
define hidden void @_ZN6Assimp19Discreet3DSImporter18ParseKeyframeChunkEv(ptr nocapture noundef nonnull align 8 dereferenceable(162) %this) local_unnamed_addr #2 align 2 personality ptr @__gxx_personality_v0 {
entry:
  %chunk = alloca %"struct.Assimp::D3DS::Discreet3DS::Chunk", align 2
  %stream = getelementptr inbounds i8, ptr %this, i64 72
  %0 = load ptr, ptr %stream, align 8
  %mLimit.i33 = getelementptr inbounds i8, ptr %0, i64 40
  %1 = load ptr, ptr %mLimit.i33, align 8
  %mCurrent.i34 = getelementptr inbounds i8, ptr %0, i64 24
  %2 = load ptr, ptr %mCurrent.i34, align 8
  %sub.ptr.lhs.cast.i35 = ptrtoint ptr %1 to i64
  %sub.ptr.rhs.cast.i36 = ptrtoint ptr %2 to i64
  %sub.ptr.sub.i37 = sub i64 %sub.ptr.lhs.cast.i35, %sub.ptr.rhs.cast.i36
  %conv2.i38 = and i64 %sub.ptr.sub.i37, 4294967294
  %cmp39 = icmp ult i64 %conv2.i38, 6
  br i1 %cmp39, label %return, label %if.end.lr.ph

if.end.lr.ph:                                     ; preds = %entry
  %Size = getelementptr inbounds i8, ptr %chunk, i64 2
  br label %if.end

if.end:                                           ; preds = %if.end.lr.ph, %while.body.backedge
  call void @_ZN6Assimp19Discreet3DSImporter9ReadChunkEPNS_4D3DS11Discreet3DS5ChunkE(ptr noundef nonnull align 8 dereferenceable(162) %this, ptr noundef nonnull %chunk)
  %3 = load i32, ptr %Size, align 2
  %sub = add i32 %3, -6
  %cmp3 = icmp slt i32 %sub, 1
  %.pre = load ptr, ptr %stream, align 8
  br i1 %cmp3, label %if.end.while.body.backedge_crit_edge, label %if.end5

if.end.while.body.backedge_crit_edge:             ; preds = %if.end
  %mLimit.i.phi.trans.insert = getelementptr inbounds i8, ptr %.pre, i64 40
  %.pre40 = load ptr, ptr %mLimit.i.phi.trans.insert, align 8
  %mCurrent.i.phi.trans.insert = getelementptr inbounds i8, ptr %.pre, i64 24
  %.pre41 = load ptr, ptr %mCurrent.i.phi.trans.insert, align 8
  %.pre42 = ptrtoint ptr %.pre40 to i64
  %.pre43 = ptrtoint ptr %.pre41 to i64
  %.pre44 = sub i64 %.pre42, %.pre43
  br label %while.body.backedge

while.body.backedge:                              ; preds = %if.end.while.body.backedge_crit_edge, %_ZN6Assimp12StreamReaderILb0ELb0EE12SetReadLimitEj.exit26
  %sub.ptr.sub.i.pre-phi = phi i64 [ %.pre44, %if.end.while.body.backedge_crit_edge ], [ %sub.ptr.sub.i31, %_ZN6Assimp12StreamReaderILb0ELb0EE12SetReadLimitEj.exit26 ]
  %conv2.i = and i64 %sub.ptr.sub.i.pre-phi, 4294967294
  %cmp = icmp ult i64 %conv2.i, 6
  br i1 %cmp, label %return, label %if.end, !llvm.loop !26

if.end5:                                          ; preds = %if.end
  %mCurrent.i2 = getelementptr inbounds i8, ptr %.pre, i64 24
  %4 = load ptr, ptr %mCurrent.i2, align 8
  %mBuffer.i = getelementptr inbounds i8, ptr %.pre, i64 16
  %5 = load ptr, ptr %mBuffer.i, align 8
  %sub.ptr.lhs.cast.i3 = ptrtoint ptr %4 to i64
  %sub.ptr.rhs.cast.i4 = ptrtoint ptr %5 to i64
  %sub.ptr.sub.i5 = sub i64 %sub.ptr.lhs.cast.i3, %sub.ptr.rhs.cast.i4
  %conv.i = trunc i64 %sub.ptr.sub.i5 to i32
  %add = add nsw i32 %sub, %conv.i
  %mLimit.i.i = getelementptr inbounds i8, ptr %.pre, i64 40
  %6 = load ptr, ptr %mLimit.i.i, align 8
  %cmp.i = icmp eq i32 %add, -1
  br i1 %cmp.i, label %if.then.i, label %if.end.i

if.then.i:                                        ; preds = %if.end5
  %mEnd.i = getelementptr inbounds i8, ptr %.pre, i64 32
  %7 = load ptr, ptr %mEnd.i, align 8
  store ptr %7, ptr %mLimit.i.i, align 8
  br label %_ZN6Assimp12StreamReaderILb0ELb0EE12SetReadLimitEj.exit

if.end.i:                                         ; preds = %if.end5
  %idx.ext.i = zext i32 %add to i64
  %add.ptr.i = getelementptr inbounds i8, ptr %5, i64 %idx.ext.i
  store ptr %add.ptr.i, ptr %mLimit.i.i, align 8
  %mEnd4.i = getelementptr inbounds i8, ptr %.pre, i64 32
  %8 = load ptr, ptr %mEnd4.i, align 8
  %cmp5.i = icmp ugt ptr %add.ptr.i, %8
  br i1 %cmp5.i, label %if.then6.i, label %_ZN6Assimp12StreamReaderILb0ELb0EE12SetReadLimitEj.exit

if.then6.i:                                       ; preds = %if.end.i
  %exception.i = tail call ptr @__cxa_allocate_exception(i64 16) #22
  invoke void @_ZN17DeadlyImportErrorC2EPKc(ptr noundef nonnull align 8 dereferenceable(16) %exception.i, ptr noundef nonnull @.str.39)
          to label %invoke.cont.i unwind label %lpad.i

invoke.cont.i:                                    ; preds = %if.then6.i
  tail call void @__cxa_throw(ptr nonnull %exception.i, ptr nonnull @_ZTI17DeadlyImportError, ptr nonnull @_ZN17DeadlyImportErrorD2Ev) #23
  unreachable

common.resume:                                    ; preds = %lpad.i22, %lpad.i
  %exception.i21.sink = phi ptr [ %exception.i21, %lpad.i22 ], [ %exception.i, %lpad.i ]
  %common.resume.op = phi { ptr, i32 } [ %18, %lpad.i22 ], [ %9, %lpad.i ]
  tail call void @__cxa_free_exception(ptr %exception.i21.sink) #22
  resume { ptr, i32 } %common.resume.op

lpad.i:                                           ; preds = %if.then6.i
  %9 = landingpad { ptr, i32 }
          cleanup
  br label %common.resume

_ZN6Assimp12StreamReaderILb0ELb0EE12SetReadLimitEj.exit: ; preds = %if.then.i, %if.end.i
  %sub.ptr.lhs.cast.i.i = ptrtoint ptr %6 to i64
  %sub.ptr.sub.i.i = sub i64 %sub.ptr.lhs.cast.i.i, %sub.ptr.rhs.cast.i4
  %10 = load i16, ptr %chunk, align 2
  %.off = add i16 %10, 20478
  %switch = icmp ult i16 %.off, 6
  br i1 %switch, label %sw.bb, label %sw.epilog

sw.bb:                                            ; preds = %_ZN6Assimp12StreamReaderILb0ELb0EE12SetReadLimitEj.exit
  tail call void @_ZN6Assimp19Discreet3DSImporter19ParseHierarchyChunkEt(ptr noundef nonnull align 8 dereferenceable(162) %this, i16 noundef zeroext %10)
  br label %sw.epilog

sw.epilog:                                        ; preds = %_ZN6Assimp12StreamReaderILb0ELb0EE12SetReadLimitEj.exit, %sw.bb
  %11 = load ptr, ptr %stream, align 8
  %mLimit.i6 = getelementptr inbounds i8, ptr %11, i64 40
  %12 = load ptr, ptr %mLimit.i6, align 8
  %mCurrent.i7 = getelementptr inbounds i8, ptr %11, i64 24
  store ptr %12, ptr %mCurrent.i7, align 8
  %13 = load ptr, ptr %stream, align 8
  %mLimit.i.i8 = getelementptr inbounds i8, ptr %13, i64 40
  %14 = and i64 %sub.ptr.sub.i.i, 4294967295
  %cmp.i10 = icmp eq i64 %14, 4294967295
  br i1 %cmp.i10, label %if.then.i24, label %if.end.i11

if.then.i24:                                      ; preds = %sw.epilog
  %mEnd.i25 = getelementptr inbounds i8, ptr %13, i64 32
  %15 = load ptr, ptr %mEnd.i25, align 8
  store ptr %15, ptr %mLimit.i.i8, align 8
  br label %_ZN6Assimp12StreamReaderILb0ELb0EE12SetReadLimitEj.exit26

if.end.i11:                                       ; preds = %sw.epilog
  %mBuffer.i.i9 = getelementptr inbounds i8, ptr %13, i64 16
  %16 = load ptr, ptr %mBuffer.i.i9, align 8
  %add.ptr.i13 = getelementptr inbounds i8, ptr %16, i64 %14
  store ptr %add.ptr.i13, ptr %mLimit.i.i8, align 8
  %mEnd4.i14 = getelementptr inbounds i8, ptr %13, i64 32
  %17 = load ptr, ptr %mEnd4.i14, align 8
  %cmp5.i15 = icmp ugt ptr %add.ptr.i13, %17
  br i1 %cmp5.i15, label %if.then6.i20, label %_ZN6Assimp12StreamReaderILb0ELb0EE12SetReadLimitEj.exit26

if.then6.i20:                                     ; preds = %if.end.i11
  %exception.i21 = tail call ptr @__cxa_allocate_exception(i64 16) #22
  invoke void @_ZN17DeadlyImportErrorC2EPKc(ptr noundef nonnull align 8 dereferenceable(16) %exception.i21, ptr noundef nonnull @.str.39)
          to label %invoke.cont.i23 unwind label %lpad.i22

invoke.cont.i23:                                  ; preds = %if.then6.i20
  tail call void @__cxa_throw(ptr nonnull %exception.i21, ptr nonnull @_ZTI17DeadlyImportError, ptr nonnull @_ZN17DeadlyImportErrorD2Ev) #23
  unreachable

lpad.i22:                                         ; preds = %if.then6.i20
  %18 = landingpad { ptr, i32 }
          cleanup
  br label %common.resume

_ZN6Assimp12StreamReaderILb0ELb0EE12SetReadLimitEj.exit26: ; preds = %if.then.i24, %if.end.i11
  %19 = load ptr, ptr %stream, align 8
  %mLimit.i27 = getelementptr inbounds i8, ptr %19, i64 40
  %20 = load ptr, ptr %mLimit.i27, align 8
  %mCurrent.i28 = getelementptr inbounds i8, ptr %19, i64 24
  %21 = load ptr, ptr %mCurrent.i28, align 8
  %sub.ptr.lhs.cast.i29 = ptrtoint ptr %20 to i64
  %sub.ptr.rhs.cast.i30 = ptrtoint ptr %21 to i64
  %sub.ptr.sub.i31 = sub i64 %sub.ptr.lhs.cast.i29, %sub.ptr.rhs.cast.i30
  %conv2.i32 = and i64 %sub.ptr.sub.i31, 4294967295
  %cmp17 = icmp eq i64 %conv2.i32, 0
  br i1 %cmp17, label %return, label %while.body.backedge

return:                                           ; preds = %while.body.backedge, %_ZN6Assimp12StreamReaderILb0ELb0EE12SetReadLimitEj.exit26, %entry
  ret void
}